target datalayout = "e-m:e-p270:32:32-p271:32:32-p272:64:64-i64:64-i128:128-f80:128-n8:16:32:64-S128"
target triple = "x86_64-pc-linux-gnu"

%struct.jpeg_compress_struct = type { ptr, ptr, ptr, ptr, i32, i32, ptr, i32, i32, i32, i32, double, i32, i32, i32, ptr, [4 x ptr], [4 x ptr], [4 x ptr], [16 x i8], [16 x i8], [16 x i8], i32, ptr, i32, i32, i32, i32, i32, i32, i32, i32, i32, i8, i8, i8, i16, i16, i32, i32, i32, i32, i32, i32, i32, [4 x ptr], i32, i32, i32, [10 x i32], i32, i32, i32, i32, ptr, ptr, ptr, ptr, ptr, ptr, ptr, ptr, ptr, ptr, i32 }
%struct.jpeg_error_mgr = type { ptr, ptr, ptr, ptr, ptr, i32, %union.anon, i32, i64, ptr, i32, ptr, i32, i32 }
%union.anon = type { [8 x i32], [48 x i8] }
%struct.jpeg_comp_master = type { ptr, ptr, ptr, i32, i32, i32 }
%struct.jpeg_progress_mgr = type { ptr, i64, i64, i32, i32 }
%struct.jpeg_c_coef_controller = type { ptr, ptr, ptr, ptr }

; Function Attrs: nounwind uwtable
define i32 @jpeg_write_raw_data(ptr noundef %0, ptr noundef %1, i32 noundef %2) #0 {
  %4 = alloca i32, align 4
  %5 = alloca ptr, align 8
  %6 = alloca ptr, align 8
  %7 = alloca i32, align 4
  %8 = alloca i32, align 4
  %9 = alloca i32, align 4
  store ptr %0, ptr %5, align 8, !tbaa !3
  store ptr %1, ptr %6, align 8, !tbaa !59
  store i32 %2, ptr %7, align 4, !tbaa !8
  call void @llvm.lifetime.start.p0(i64 4, ptr %8) #3
  %10 = load ptr, ptr %5, align 8, !tbaa !3
  %11 = getelementptr inbounds nuw %struct.jpeg_compress_struct, ptr %10, i32 0, i32 12
  %12 = load i32, ptr %11, align 8, !tbaa !46
  %13 = icmp ne i32 %12, 8
  br i1 %13, label %14, label %33

14:                                               ; preds = %3
  %15 = load ptr, ptr %5, align 8, !tbaa !3
  %16 = getelementptr inbounds nuw %struct.jpeg_compress_struct, ptr %15, i32 0, i32 0
  %17 = load ptr, ptr %16, align 8, !tbaa !27
  %18 = getelementptr inbounds nuw %struct.jpeg_error_mgr, ptr %17, i32 0, i32 5
  store i32 15, ptr %18, align 8, !tbaa !28
  %19 = load ptr, ptr %5, align 8, !tbaa !3
  %20 = getelementptr inbounds nuw %struct.jpeg_compress_struct, ptr %19, i32 0, i32 12
  %21 = load i32, ptr %20, align 8, !tbaa !46
  %22 = load ptr, ptr %5, align 8, !tbaa !3
  %23 = getelementptr inbounds nuw %struct.jpeg_compress_struct, ptr %22, i32 0, i32 0
  %24 = load ptr, ptr %23, align 8, !tbaa !27
  %25 = getelementptr inbounds nuw %struct.jpeg_error_mgr, ptr %24, i32 0, i32 6
  %26 = getelementptr inbounds [8 x i32], ptr %25, i64 0, i64 0
  store i32 %21, ptr %26, align 4, !tbaa !32
  %27 = load ptr, ptr %5, align 8, !tbaa !3
  %28 = getelementptr inbounds nuw %struct.jpeg_compress_struct, ptr %27, i32 0, i32 0
  %29 = load ptr, ptr %28, align 8, !tbaa !27
  %30 = getelementptr inbounds nuw %struct.jpeg_error_mgr, ptr %29, i32 0, i32 0
  %31 = load ptr, ptr %30, align 8, !tbaa !33
  %32 = load ptr, ptr %5, align 8, !tbaa !3
  call void %31(ptr noundef %32)
  br label %33

33:                                               ; preds = %14, %3
  %34 = load ptr, ptr %5, align 8, !tbaa !3
  %35 = getelementptr inbounds nuw %struct.jpeg_compress_struct, ptr %34, i32 0, i32 54
  %36 = load ptr, ptr %35, align 8, !tbaa !39
  %37 = getelementptr inbounds nuw %struct.jpeg_comp_master, ptr %36, i32 0, i32 5
  %38 = load i32, ptr %37, align 8, !tbaa !45
  %39 = icmp ne i32 %38, 0
  br i1 %39, label %40, label %51

40:                                               ; preds = %33
  %41 = load ptr, ptr %5, align 8, !tbaa !3
  %42 = getelementptr inbounds nuw %struct.jpeg_compress_struct, ptr %41, i32 0, i32 0
  %43 = load ptr, ptr %42, align 8, !tbaa !27
  %44 = getelementptr inbounds nuw %struct.jpeg_error_mgr, ptr %43, i32 0, i32 5
  store i32 47, ptr %44, align 8, !tbaa !28
  %45 = load ptr, ptr %5, align 8, !tbaa !3
  %46 = getelementptr inbounds nuw %struct.jpeg_compress_struct, ptr %45, i32 0, i32 0
  %47 = load ptr, ptr %46, align 8, !tbaa !27
  %48 = getelementptr inbounds nuw %struct.jpeg_error_mgr, ptr %47, i32 0, i32 0
  %49 = load ptr, ptr %48, align 8, !tbaa !33
  %50 = load ptr, ptr %5, align 8, !tbaa !3
  call void %49(ptr noundef %50)
  br label %51

51:                                               ; preds = %40, %33
  %52 = load ptr, ptr %5, align 8, !tbaa !3
  %53 = getelementptr inbounds nuw %struct.jpeg_compress_struct, ptr %52, i32 0, i32 5
  %54 = load i32, ptr %53, align 4, !tbaa !10
  %55 = icmp ne i32 %54, 102
  br i1 %55, label %56, label %75

56:                                               ; preds = %51
  %57 = load ptr, ptr %5, align 8, !tbaa !3
  %58 = getelementptr inbounds nuw %struct.jpeg_compress_struct, ptr %57, i32 0, i32 0
  %59 = load ptr, ptr %58, align 8, !tbaa !27
  %60 = getelementptr inbounds nuw %struct.jpeg_error_mgr, ptr %59, i32 0, i32 5
  store i32 20, ptr %60, align 8, !tbaa !28
  %61 = load ptr, ptr %5, align 8, !tbaa !3
  %62 = getelementptr inbounds nuw %struct.jpeg_compress_struct, ptr %61, i32 0, i32 5
  %63 = load i32, ptr %62, align 4, !tbaa !10
  %64 = load ptr, ptr %5, align 8, !tbaa !3
  %65 = getelementptr inbounds nuw %struct.jpeg_compress_struct, ptr %64, i32 0, i32 0
  %66 = load ptr, ptr %65, align 8, !tbaa !27
  %67 = getelementptr inbounds nuw %struct.jpeg_error_mgr, ptr %66, i32 0, i32 6
  %68 = getelementptr inbounds [8 x i32], ptr %67, i64 0, i64 0
  store i32 %63, ptr %68, align 4, !tbaa !32
  %69 = load ptr, ptr %5, align 8, !tbaa !3
  %70 = getelementptr inbounds nuw %struct.jpeg_compress_struct, ptr %69, i32 0, i32 0
  %71 = load ptr, ptr %70, align 8, !tbaa !27
  %72 = getelementptr inbounds nuw %struct.jpeg_error_mgr, ptr %71, i32 0, i32 0
  %73 = load ptr, ptr %72, align 8, !tbaa !33
  %74 = load ptr, ptr %5, align 8, !tbaa !3
  call void %73(ptr noundef %74)
  br label %75

75:                                               ; preds = %56, %51
  %76 = load ptr, ptr %5, align 8, !tbaa !3
  %77 = getelementptr inbounds nuw %struct.jpeg_compress_struct, ptr %76, i32 0, i32 39
  %78 = load i32, ptr %77, align 8, !tbaa !42
  %79 = load ptr, ptr %5, align 8, !tbaa !3
  %80 = getelementptr inbounds nuw %struct.jpeg_compress_struct, ptr %79, i32 0, i32 8
  %81 = load i32, ptr %80, align 4, !tbaa !47
  %82 = icmp uge i32 %78, %81
  br i1 %82, label %83, label %94

83:                                               ; preds = %75
  %84 = load ptr, ptr %5, align 8, !tbaa !3
  %85 = getelementptr inbounds nuw %struct.jpeg_compress_struct, ptr %84, i32 0, i32 0
  %86 = load ptr, ptr %85, align 8, !tbaa !27
  %87 = getelementptr inbounds nuw %struct.jpeg_error_mgr, ptr %86, i32 0, i32 5
  store i32 123, ptr %87, align 8, !tbaa !28
  %88 = load ptr, ptr %5, align 8, !tbaa !3
  %89 = getelementptr inbounds nuw %struct.jpeg_compress_struct, ptr %88, i32 0, i32 0
  %90 = load ptr, ptr %89, align 8, !tbaa !27
  %91 = getelementptr inbounds nuw %struct.jpeg_error_mgr, ptr %90, i32 0, i32 1
  %92 = load ptr, ptr %91, align 8, !tbaa !48
  %93 = load ptr, ptr %5, align 8, !tbaa !3
  call void %92(ptr noundef %93, i32 noundef -1)
  store i32 0, ptr %4, align 4
  store i32 1, ptr %9, align 4
  br label %199

94:                                               ; preds = %75
  %95 = load ptr, ptr %5, align 8, !tbaa !3
  %96 = getelementptr inbounds nuw %struct.jpeg_compress_struct, ptr %95, i32 0, i32 2
  %97 = load ptr, ptr %96, align 8, !tbaa !49
  %98 = icmp ne ptr %97, null
  br i1 %98, label %99, label %122

99:                                               ; preds = %94
  %100 = load ptr, ptr %5, align 8, !tbaa !3
  %101 = getelementptr inbounds nuw %struct.jpeg_compress_struct, ptr %100, i32 0, i32 39
  %102 = load i32, ptr %101, align 8, !tbaa !42
  %103 = zext i32 %102 to i64
  %104 = load ptr, ptr %5, align 8, !tbaa !3
  %105 = getelementptr inbounds nuw %struct.jpeg_compress_struct, ptr %104, i32 0, i32 2
  %106 = load ptr, ptr %105, align 8, !tbaa !49
  %107 = getelementptr inbounds nuw %struct.jpeg_progress_mgr, ptr %106, i32 0, i32 1
  store i64 %103, ptr %107, align 8, !tbaa !50
  %108 = load ptr, ptr %5, align 8, !tbaa !3
  %109 = getelementptr inbounds nuw %struct.jpeg_compress_struct, ptr %108, i32 0, i32 8
  %110 = load i32, ptr %109, align 4, !tbaa !47
  %111 = zext i32 %110 to i64
  %112 = load ptr, ptr %5, align 8, !tbaa !3
  %113 = getelementptr inbounds nuw %struct.jpeg_compress_struct, ptr %112, i32 0, i32 2
  %114 = load ptr, ptr %113, align 8, !tbaa !49
  %115 = getelementptr inbounds nuw %struct.jpeg_progress_mgr, ptr %114, i32 0, i32 2
  store i64 %111, ptr %115, align 8, !tbaa !52
  %116 = load ptr, ptr %5, align 8, !tbaa !3
  %117 = getelementptr inbounds nuw %struct.jpeg_compress_struct, ptr %116, i32 0, i32 2
  %118 = load ptr, ptr %117, align 8, !tbaa !49
  %119 = getelementptr inbounds nuw %struct.jpeg_progress_mgr, ptr %118, i32 0, i32 0
  %120 = load ptr, ptr %119, align 8, !tbaa !53
  %121 = load ptr, ptr %5, align 8, !tbaa !3
  call void %120(ptr noundef %121)
  br label %122

122:                                              ; preds = %99, %94
  %123 = load ptr, ptr %5, align 8, !tbaa !3
  %124 = getelementptr inbounds nuw %struct.jpeg_compress_struct, ptr %123, i32 0, i32 54
  %125 = load ptr, ptr %124, align 8, !tbaa !39
  %126 = getelementptr inbounds nuw %struct.jpeg_comp_master, ptr %125, i32 0, i32 3
  %127 = load i32, ptr %126, align 8, !tbaa !54
  %128 = icmp ne i32 %127, 0
  br i1 %128, label %129, label %136

129:                                              ; preds = %122
  %130 = load ptr, ptr %5, align 8, !tbaa !3
  %131 = getelementptr inbounds nuw %struct.jpeg_compress_struct, ptr %130, i32 0, i32 54
  %132 = load ptr, ptr %131, align 8, !tbaa !39
  %133 = getelementptr inbounds nuw %struct.jpeg_comp_master, ptr %132, i32 0, i32 1
  %134 = load ptr, ptr %133, align 8, !tbaa !55
  %135 = load ptr, ptr %5, align 8, !tbaa !3
  call void %134(ptr noundef %135)
  br label %136

136:                                              ; preds = %129, %122
  %137 = load ptr, ptr %5, align 8, !tbaa !3
  %138 = getelementptr inbounds nuw %struct.jpeg_compress_struct, ptr %137, i32 0, i32 42
  %139 = load i32, ptr %138, align 4, !tbaa !61
  %140 = mul nsw i32 %139, 8
  store i32 %140, ptr %8, align 4, !tbaa !8
  %141 = load i32, ptr %7, align 4, !tbaa !8
  %142 = load i32, ptr %8, align 4, !tbaa !8
  %143 = icmp ult i32 %141, %142
  br i1 %143, label %144, label %155

144:                                              ; preds = %136
  %145 = load ptr, ptr %5, align 8, !tbaa !3
  %146 = getelementptr inbounds nuw %struct.jpeg_compress_struct, ptr %145, i32 0, i32 0
  %147 = load ptr, ptr %146, align 8, !tbaa !27
  %148 = getelementptr inbounds nuw %struct.jpeg_error_mgr, ptr %147, i32 0, i32 5
  store i32 23, ptr %148, align 8, !tbaa !28
  %149 = load ptr, ptr %5, align 8, !tbaa !3
  %150 = getelementptr inbounds nuw %struct.jpeg_compress_struct, ptr %149, i32 0, i32 0
  %151 = load ptr, ptr %150, align 8, !tbaa !27
  %152 = getelementptr inbounds nuw %struct.jpeg_error_mgr, ptr %151, i32 0, i32 0
  %153 = load ptr, ptr %152, align 8, !tbaa !33
  %154 = load ptr, ptr %5, align 8, !tbaa !3
  call void %153(ptr noundef %154)
  br label %155

155:                                              ; preds = %144, %136
  %156 = load ptr, ptr %5, align 8, !tbaa !3
  %157 = getelementptr inbounds nuw %struct.jpeg_compress_struct, ptr %156, i32 0, i32 57
  %158 = load ptr, ptr %157, align 8, !tbaa !62
  %159 = getelementptr inbounds nuw %struct.jpeg_c_coef_controller, ptr %158, i32 0, i32 1
  %160 = load ptr, ptr %159, align 8, !tbaa !63
  %161 = icmp eq ptr %160, null
  br i1 %161, label %162, label %181

162:                                              ; preds = %155
  %163 = load ptr, ptr %5, align 8, !tbaa !3
  %164 = getelementptr inbounds nuw %struct.jpeg_compress_struct, ptr %163, i32 0, i32 0
  %165 = load ptr, ptr %164, align 8, !tbaa !27
  %166 = getelementptr inbounds nuw %struct.jpeg_error_mgr, ptr %165, i32 0, i32 5
  store i32 15, ptr %166, align 8, !tbaa !28
  %167 = load ptr, ptr %5, align 8, !tbaa !3
  %168 = getelementptr inbounds nuw %struct.jpeg_compress_struct, ptr %167, i32 0, i32 12
  %169 = load i32, ptr %168, align 8, !tbaa !46
  %170 = load ptr, ptr %5, align 8, !tbaa !3
  %171 = getelementptr inbounds nuw %struct.jpeg_compress_struct, ptr %170, i32 0, i32 0
  %172 = load ptr, ptr %171, align 8, !tbaa !27
  %173 = getelementptr inbounds nuw %struct.jpeg_error_mgr, ptr %172, i32 0, i32 6
  %174 = getelementptr inbounds [8 x i32], ptr %173, i64 0, i64 0
  store i32 %169, ptr %174, align 4, !tbaa !32
  %175 = load ptr, ptr %5, align 8, !tbaa !3
  %176 = getelementptr inbounds nuw %struct.jpeg_compress_struct, ptr %175, i32 0, i32 0
  %177 = load ptr, ptr %176, align 8, !tbaa !27
  %178 = getelementptr inbounds nuw %struct.jpeg_error_mgr, ptr %177, i32 0, i32 0
  %179 = load ptr, ptr %178, align 8, !tbaa !33
  %180 = load ptr, ptr %5, align 8, !tbaa !3
  call void %179(ptr noundef %180)
  br label %181

181:                                              ; preds = %162, %155
  %182 = load ptr, ptr %5, align 8, !tbaa !3
  %183 = getelementptr inbounds nuw %struct.jpeg_compress_struct, ptr %182, i32 0, i32 57
  %184 = load ptr, ptr %183, align 8, !tbaa !62
  %185 = getelementptr inbounds nuw %struct.jpeg_c_coef_controller, ptr %184, i32 0, i32 1
  %186 = load ptr, ptr %185, align 8, !tbaa !63
  %187 = load ptr, ptr %5, align 8, !tbaa !3
  %188 = load ptr, ptr %6, align 8, !tbaa !59
  %189 = call i32 %186(ptr noundef %187, ptr noundef %188)
  %190 = icmp ne i32 %189, 0
  br i1 %190, label %192, label %191

191:                                              ; preds = %181
  store i32 0, ptr %4, align 4
  store i32 1, ptr %9, align 4
  br label %199

192:                                              ; preds = %181
  %193 = load i32, ptr %8, align 4, !tbaa !8
  %194 = load ptr, ptr %5, align 8, !tbaa !3
  %195 = getelementptr inbounds nuw %struct.jpeg_compress_struct, ptr %194, i32 0, i32 39
  %196 = load i32, ptr %195, align 8, !tbaa !42
  %197 = add i32 %196, %193
  store i32 %197, ptr %195, align 8, !tbaa !42
  %198 = load i32, ptr %8, align 4, !tbaa !8
  store i32 %198, ptr %4, align 4
  store i32 1, ptr %9, align 4
  br label %199

199:                                              ; preds = %192, %191, %83
  call void @llvm.lifetime.end.p0(i64 4, ptr %8) #3
  %200 = load i32, ptr %4, align 4
  ret i32 %200
}