; Function Attrs: nounwind uwtable
define range(i32 -2147483648, 2147483641) i32 @jpeg_write_raw_data(ptr noundef %0, ptr noundef %1, i32 noundef %2) local_unnamed_addr #0 {
  %4 = getelementptr inbounds nuw i8, ptr %0, i64 72
  %5 = load i32, ptr %4, align 8, !tbaa !42
  %.not = icmp eq i32 %5, 8
  br i1 %.not, label %12, label %6

6:                                                ; preds = %3
  %7 = load ptr, ptr %0, align 8, !tbaa !24
  %8 = getelementptr inbounds nuw i8, ptr %7, i64 40
  store i32 15, ptr %8, align 8, !tbaa !25
  %9 = getelementptr inbounds nuw i8, ptr %7, i64 44
  store i32 %5, ptr %9, align 4, !tbaa !29
  %10 = load ptr, ptr %0, align 8, !tbaa !24
  %11 = load ptr, ptr %10, align 8, !tbaa !30
  tail call void %11(ptr noundef nonnull %0) #4
  br label %12

12:                                               ; preds = %6, %3
  %13 = getelementptr inbounds nuw i8, ptr %0, i64 432
  %14 = load ptr, ptr %13, align 8, !tbaa !36
  %15 = getelementptr inbounds nuw i8, ptr %14, i64 32
  %16 = load i32, ptr %15, align 8, !tbaa !41
  %.not51 = icmp eq i32 %16, 0
  br i1 %.not51, label %21, label %17

17:                                               ; preds = %12
  %18 = load ptr, ptr %0, align 8, !tbaa !24
  %19 = getelementptr inbounds nuw i8, ptr %18, i64 40
  store i32 47, ptr %19, align 8, !tbaa !25
  %20 = load ptr, ptr %18, align 8, !tbaa !30
  tail call void %20(ptr noundef nonnull %0) #4
  br label %21

21:                                               ; preds = %17, %12
  %22 = getelementptr inbounds nuw i8, ptr %0, i64 36
  %23 = load i32, ptr %22, align 4, !tbaa !3
  %.not52 = icmp eq i32 %23, 102
  br i1 %.not52, label %30, label %24

24:                                               ; preds = %21
  %25 = load ptr, ptr %0, align 8, !tbaa !24
  %26 = getelementptr inbounds nuw i8, ptr %25, i64 40
  store i32 20, ptr %26, align 8, !tbaa !25
  %27 = getelementptr inbounds nuw i8, ptr %25, i64 44
  store i32 %23, ptr %27, align 4, !tbaa !29
  %28 = load ptr, ptr %0, align 8, !tbaa !24
  %29 = load ptr, ptr %28, align 8, !tbaa !30
  tail call void %29(ptr noundef nonnull %0) #4
  br label %30

30:                                               ; preds = %24, %21
  %31 = getelementptr inbounds nuw i8, ptr %0, i64 304
  %32 = load i32, ptr %31, align 8, !tbaa !39
  %33 = getelementptr inbounds nuw i8, ptr %0, i64 52
  %34 = load i32, ptr %33, align 4, !tbaa !43
  %.not53 = icmp ult i32 %32, %34
  br i1 %.not53, label %40, label %35

35:                                               ; preds = %30
  %36 = load ptr, ptr %0, align 8, !tbaa !24
  %37 = getelementptr inbounds nuw i8, ptr %36, i64 40
  store i32 123, ptr %37, align 8, !tbaa !25
  %38 = getelementptr inbounds nuw i8, ptr %36, i64 8
  %39 = load ptr, ptr %38, align 8, !tbaa !44
  tail call void %39(ptr noundef nonnull %0, i32 noundef -1) #4
  br label %84

40:                                               ; preds = %30
  %41 = getelementptr inbounds nuw i8, ptr %0, i64 16
  %42 = load ptr, ptr %41, align 8, !tbaa !45
  %.not54 = icmp eq ptr %42, null
  br i1 %.not54, label %49, label %43

43:                                               ; preds = %40
  %44 = zext i32 %32 to i64
  %45 = getelementptr inbounds nuw i8, ptr %42, i64 8
  store i64 %44, ptr %45, align 8, !tbaa !46
  %46 = zext i32 %34 to i64
  %47 = getelementptr inbounds nuw i8, ptr %42, i64 16
  store i64 %46, ptr %47, align 8, !tbaa !48
  %48 = load ptr, ptr %42, align 8, !tbaa !49
  tail call void %48(ptr noundef nonnull %0) #4
  br label %49

49:                                               ; preds = %43, %40
  %50 = load ptr, ptr %13, align 8, !tbaa !36
  %51 = getelementptr inbounds nuw i8, ptr %50, i64 24
  %52 = load i32, ptr %51, align 8, !tbaa !50
  %.not55 = icmp eq i32 %52, 0
  br i1 %.not55, label %56, label %53

53:                                               ; preds = %49
  %54 = getelementptr inbounds nuw i8, ptr %50, i64 8
  %55 = load ptr, ptr %54, align 8, !tbaa !51
  tail call void %55(ptr noundef nonnull %0) #4
  br label %56

56:                                               ; preds = %53, %49
  %57 = getelementptr inbounds nuw i8, ptr %0, i64 316
  %58 = load i32, ptr %57, align 4, !tbaa !56
  %59 = shl nsw i32 %58, 3
  %60 = icmp ult i32 %2, %59
  br i1 %60, label %61, label %65

61:                                               ; preds = %56
  %62 = load ptr, ptr %0, align 8, !tbaa !24
  %63 = getelementptr inbounds nuw i8, ptr %62, i64 40
  store i32 23, ptr %63, align 8, !tbaa !25
  %64 = load ptr, ptr %62, align 8, !tbaa !30
  tail call void %64(ptr noundef nonnull %0) #4
  br label %65

65:                                               ; preds = %61, %56
  %66 = getelementptr inbounds nuw i8, ptr %0, i64 456
  %67 = load ptr, ptr %66, align 8, !tbaa !57
  %68 = getelementptr inbounds nuw i8, ptr %67, i64 8
  %69 = load ptr, ptr %68, align 8, !tbaa !58
  %70 = icmp eq ptr %69, null
  br i1 %70, label %71, label %78

71:                                               ; preds = %65
  %72 = load ptr, ptr %0, align 8, !tbaa !24
  %73 = getelementptr inbounds nuw i8, ptr %72, i64 40
  store i32 15, ptr %73, align 8, !tbaa !25
  %74 = load i32, ptr %4, align 8, !tbaa !42
  %75 = getelementptr inbounds nuw i8, ptr %72, i64 44
  store i32 %74, ptr %75, align 4, !tbaa !29
  %76 = load ptr, ptr %0, align 8, !tbaa !24
  %77 = load ptr, ptr %76, align 8, !tbaa !30
  tail call void %77(ptr noundef nonnull %0) #4
  %.pre = load ptr, ptr %66, align 8, !tbaa !57
  %.phi.trans.insert = getelementptr inbounds nuw i8, ptr %.pre, i64 8
  %.pre57 = load ptr, ptr %.phi.trans.insert, align 8, !tbaa !58
  br label %78

78:                                               ; preds = %71, %65
  %79 = phi ptr [ %.pre57, %71 ], [ %69, %65 ]
  %80 = tail call i32 %79(ptr noundef nonnull %0, ptr noundef %1) #4
  %.not56 = icmp eq i32 %80, 0
  br i1 %.not56, label %84, label %81

81:                                               ; preds = %78
  %82 = load i32, ptr %31, align 8, !tbaa !39
  %83 = add i32 %82, %59
  store i32 %83, ptr %31, align 8, !tbaa !39
  br label %84

84:                                               ; preds = %78, %81, %35
  %.0 = phi i32 [ 0, %35 ], [ %59, %81 ], [ 0, %78 ]
  ret i32 %.0
}